target datalayout = "e-m:e-p270:32:32-p271:32:32-p272:64:64-i64:64-i128:128-f80:128-n8:16:32:64-S128"
target triple = "x86_64-pc-linux-gnu"

%"class.cv::Mat" = type { i32, i32, i32, i32, ptr, ptr, ptr, ptr, ptr, ptr, %"struct.cv::MatSize", %"struct.cv::MatStep" }
%"struct.cv::MatSize" = type { ptr }
%"struct.cv::MatStep" = type { ptr, [2 x i64] }
%"class.cv::Size_" = type { i32, i32 }
%"class.cv::_InputArray" = type { i32, ptr, %"class.cv::Size_" }
%struct.CvScalar = type { [4 x double] }
%"class.cv::Scalar_" = type { %"class.cv::Vec" }
%"class.cv::Vec" = type { %"class.cv::Matx" }
%"class.cv::Matx" = type { [4 x double] }

; Function Attrs: inlinehint mustprogress nounwind uwtable
define linkonce_odr hidden void @_ZN2cv11_InputArray4initEiPKv(ptr noundef nonnull align 8 dereferenceable(24) %0, i32 noundef %1, ptr noundef %2) #2 comdat align 2 {
  %4 = alloca ptr, align 8
  %5 = alloca i32, align 4
  %6 = alloca ptr, align 8
  store ptr %0, ptr %4, align 8, !tbaa !114
  store i32 %1, ptr %5, align 4, !tbaa !19
  store ptr %2, ptr %6, align 8, !tbaa !48
  %7 = load ptr, ptr %4, align 8
  %8 = load i32, ptr %5, align 4, !tbaa !19
  %9 = getelementptr inbounds nuw %"class.cv::_InputArray", ptr %7, i32 0, i32 0
  store i32 %8, ptr %9, align 8, !tbaa !144
  %10 = load ptr, ptr %6, align 8, !tbaa !48
  %11 = getelementptr inbounds nuw %"class.cv::_InputArray", ptr %7, i32 0, i32 1
  store ptr %10, ptr %11, align 8, !tbaa !116
  ret void
}

; Function Attrs: inlinehint mustprogress nounwind uwtable
define linkonce_odr hidden void @_ZN2cv5Size_IiEC2Ev(ptr noundef nonnull align 4 dereferenceable(8) %0) unnamed_addr #2 comdat align 2 {
  %2 = alloca ptr, align 8
  store ptr %0, ptr %2, align 8, !tbaa !40
  %3 = load ptr, ptr %2, align 8
  %4 = getelementptr inbounds nuw %"class.cv::Size_", ptr %3, i32 0, i32 0
  store i32 0, ptr %4, align 4, !tbaa !42
  %5 = getelementptr inbounds nuw %"class.cv::Size_", ptr %3, i32 0, i32 1
  store i32 0, ptr %5, align 4, !tbaa !46
  ret void
}

; Function Attrs: inlinehint mustprogress nounwind uwtable
define linkonce_odr hidden void @_ZN2cv11_InputArrayD2Ev(ptr noundef nonnull align 8 dereferenceable(24) %0) unnamed_addr #2 comdat align 2 {
  %2 = alloca ptr, align 8
  store ptr %0, ptr %2, align 8, !tbaa !114
  ret void
}

; Function Attrs: inlinehint mustprogress nounwind uwtable
define internal void @_ZL8cvScalarRKN2cv7Scalar_IdEE(ptr dead_on_unwind noalias writable sret(%struct.CvScalar) align 8 %0, ptr noundef nonnull align 8 dereferenceable(32) %1) #2 {
  %3 = alloca ptr, align 8
  store ptr %1, ptr %3, align 8, !tbaa !124
  call void @llvm.memset.p0.i64(ptr align 8 %0, i8 0, i64 32, i1 false)
  %4 = load ptr, ptr %3, align 8, !tbaa !124
  %5 = getelementptr inbounds nuw %"class.cv::Matx", ptr %4, i32 0, i32 0
  %6 = getelementptr inbounds [4 x double], ptr %5, i64 0, i64 0
  %7 = load double, ptr %6, align 8, !tbaa !122
  %8 = getelementptr inbounds nuw %struct.CvScalar, ptr %0, i32 0, i32 0
  %9 = getelementptr inbounds [4 x double], ptr %8, i64 0, i64 0
  store double %7, ptr %9, align 8, !tbaa !122
  %10 = load ptr, ptr %3, align 8, !tbaa !124
  %11 = getelementptr inbounds nuw %"class.cv::Matx", ptr %10, i32 0, i32 0
  %12 = getelementptr inbounds [4 x double], ptr %11, i64 0, i64 1
  %13 = load double, ptr %12, align 8, !tbaa !122
  %14 = getelementptr inbounds nuw %struct.CvScalar, ptr %0, i32 0, i32 0
  %15 = getelementptr inbounds [4 x double], ptr %14, i64 0, i64 1
  store double %13, ptr %15, align 8, !tbaa !122
  %16 = load ptr, ptr %3, align 8, !tbaa !124
  %17 = getelementptr inbounds nuw %"class.cv::Matx", ptr %16, i32 0, i32 0
  %18 = getelementptr inbounds [4 x double], ptr %17, i64 0, i64 2
  %19 = load double, ptr %18, align 8, !tbaa !122
  %20 = getelementptr inbounds nuw %struct.CvScalar, ptr %0, i32 0, i32 0
  %21 = getelementptr inbounds [4 x double], ptr %20, i64 0, i64 2
  store double %19, ptr %21, align 8, !tbaa !122
  %22 = load ptr, ptr %3, align 8, !tbaa !124
  %23 = getelementptr inbounds nuw %"class.cv::Matx", ptr %22, i32 0, i32 0
  %24 = getelementptr inbounds [4 x double], ptr %23, i64 0, i64 3
  %25 = load double, ptr %24, align 8, !tbaa !122
  %26 = getelementptr inbounds nuw %struct.CvScalar, ptr %0, i32 0, i32 0
  %27 = getelementptr inbounds [4 x double], ptr %26, i64 0, i64 3
  store double %25, ptr %27, align 8, !tbaa !122
  ret void
}

; Function Attrs: inlinehint mustprogress uwtable
define linkonce_odr hidden void @_ZN2cv11_InputArrayC2ERKNS_3MatE(ptr noundef nonnull align 8 dereferenceable(24) %0, ptr noundef nonnull align 8 dereferenceable(96) %1) unnamed_addr #6 comdat align 2 {
  %3 = alloca ptr, align 8
  %4 = alloca ptr, align 8
  store ptr %0, ptr %3, align 8, !tbaa !114
  store ptr %1, ptr %4, align 8, !tbaa !3
  %5 = load ptr, ptr %3, align 8
  %6 = getelementptr inbounds nuw %"class.cv::_InputArray", ptr %5, i32 0, i32 2
  call void @_ZN2cv5Size_IiEC2Ev(ptr noundef nonnull align 4 dereferenceable(8) %6)
  %7 = load ptr, ptr %4, align 8, !tbaa !3
  call void @_ZN2cv11_InputArray4initEiPKv(ptr noundef nonnull align 8 dereferenceable(24) %5, i32 noundef 16842752, ptr noundef %7)
  ret void
}

; Function Attrs: mustprogress uwtable
define void @cvTrace(ptr dead_on_unwind noalias writable sret(%struct.CvScalar) align 8 %0, ptr noundef %1) #0 personality ptr @__gxx_personality_v0 {
  %3 = alloca ptr, align 8
  %4 = alloca %"class.cv::Scalar_", align 8
  %5 = alloca %"class.cv::_InputArray", align 8
  %6 = alloca %"class.cv::Mat", align 8
  %7 = alloca ptr, align 8
  %8 = alloca i32, align 4
  store ptr %1, ptr %3, align 8, !tbaa !48
  call void @llvm.lifetime.start.p0(i64 32, ptr %4) #18
  call void @llvm.lifetime.start.p0(i64 24, ptr %5) #18
  call void @llvm.lifetime.start.p0(i64 96, ptr %6) #18
  %9 = load ptr, ptr %3, align 8, !tbaa !48
  call void @_ZN2cv10cvarrToMatEPKvbbiPNS_10AutoBufferIdLm136EEE(ptr dead_on_unwind writable sret(%"class.cv::Mat") align 8 %6, ptr noundef %9, i1 noundef zeroext false, i1 noundef zeroext true, i32 noundef 0, ptr noundef null)
  invoke void @_ZN2cv11_InputArrayC2ERKNS_3MatE(ptr noundef nonnull align 8 dereferenceable(24) %5, ptr noundef nonnull align 8 dereferenceable(96) %6)
          to label %10 unwind label %13

10:                                               ; preds = %2
  invoke void @_ZN2cv5traceERKNS_11_InputArrayE(ptr dead_on_unwind writable sret(%"class.cv::Scalar_") align 8 %4, ptr noundef nonnull align 8 dereferenceable(24) %5)
          to label %11 unwind label %17

11:                                               ; preds = %10
  invoke void @_ZL8cvScalarRKN2cv7Scalar_IdEE(ptr dead_on_unwind writable sret(%struct.CvScalar) align 8 %0, ptr noundef nonnull align 8 dereferenceable(32) %4)
          to label %12 unwind label %17

12:                                               ; preds = %11
  call void @_ZN2cv11_InputArrayD2Ev(ptr noundef nonnull align 8 dereferenceable(24) %5) #18
  call void @_ZN2cv3MatD1Ev(ptr noundef nonnull align 8 dereferenceable(96) %6) #18
  call void @llvm.lifetime.end.p0(i64 96, ptr %6) #18
  call void @llvm.lifetime.end.p0(i64 24, ptr %5) #18
  call void @llvm.lifetime.end.p0(i64 32, ptr %4) #18
  ret void

13:                                               ; preds = %2
  %14 = landingpad { ptr, i32 }
          cleanup
  %15 = extractvalue { ptr, i32 } %14, 0
  store ptr %15, ptr %7, align 8
  %16 = extractvalue { ptr, i32 } %14, 1
  store i32 %16, ptr %8, align 4
  br label %21

17:                                               ; preds = %11, %10
  %18 = landingpad { ptr, i32 }
          cleanup
  %19 = extractvalue { ptr, i32 } %18, 0
  store ptr %19, ptr %7, align 8
  %20 = extractvalue { ptr, i32 } %18, 1
  store i32 %20, ptr %8, align 4
  call void @_ZN2cv11_InputArrayD2Ev(ptr noundef nonnull align 8 dereferenceable(24) %5) #18
  br label %21

21:                                               ; preds = %17, %13
  call void @_ZN2cv3MatD1Ev(ptr noundef nonnull align 8 dereferenceable(96) %6) #18
  call void @llvm.lifetime.end.p0(i64 96, ptr %6) #18
  call void @llvm.lifetime.end.p0(i64 24, ptr %5) #18
  call void @llvm.lifetime.end.p0(i64 32, ptr %4) #18
  br label %22

22:                                               ; preds = %21
  %23 = load ptr, ptr %7, align 8
  %24 = load i32, ptr %8, align 4
  %25 = insertvalue { ptr, i32 } poison, ptr %23, 0
  %26 = insertvalue { ptr, i32 } %25, i32 %24, 1
  resume { ptr, i32 } %26
}