; Function Attrs: mustprogress uwtable
define void @cvTrace(ptr dead_on_unwind noalias writable writeonly sret(%struct.CvScalar) align 8 captures(none) %0, ptr noundef %1) local_unnamed_addr #0 personality ptr @__gxx_personality_v0 {
  %3 = alloca %"class.cv::Scalar_", align 8
  %4 = alloca %"class.cv::_InputArray", align 8
  %5 = alloca %"class.cv::Mat", align 8
  call void @llvm.lifetime.start.p0(i64 32, ptr nonnull %3) #13
  call void @llvm.lifetime.start.p0(i64 24, ptr nonnull %4) #13
  call void @llvm.lifetime.start.p0(i64 96, ptr nonnull %5) #13
  call void @_ZN2cv10cvarrToMatEPKvbbiPNS_10AutoBufferIdLm136EEE(ptr dead_on_unwind nonnull writable sret(%"class.cv::Mat") align 8 %5, ptr noundef %1, i1 noundef zeroext false, i1 zeroext poison, i32 noundef 0, ptr noundef null)
  %6 = getelementptr inbounds nuw i8, ptr %4, i64 16
  store i32 0, ptr %6, align 8, !tbaa !102
  %7 = getelementptr inbounds nuw i8, ptr %4, i64 20
  store i32 0, ptr %7, align 4, !tbaa !103
  store i32 16842752, ptr %4, align 8, !tbaa !45
  %8 = getelementptr inbounds nuw i8, ptr %4, i64 8
  store ptr %5, ptr %8, align 8, !tbaa !48
  invoke void @_ZN2cv5traceERKNS_11_InputArrayE(ptr dead_on_unwind nonnull writable sret(%"class.cv::Scalar_") align 8 %3, ptr noundef nonnull align 8 dereferenceable(24) %4)
          to label %9 unwind label %20

9:                                                ; preds = %2
  call void @llvm.experimental.noalias.scope.decl(metadata !104)
  %10 = load double, ptr %3, align 8, !tbaa !100, !noalias !104
  store double %10, ptr %0, align 8, !tbaa !100, !alias.scope !104
  %11 = getelementptr inbounds nuw i8, ptr %3, i64 8
  %12 = load double, ptr %11, align 8, !tbaa !100, !noalias !104
  %13 = getelementptr inbounds nuw i8, ptr %0, i64 8
  store double %12, ptr %13, align 8, !tbaa !100, !alias.scope !104
  %14 = getelementptr inbounds nuw i8, ptr %3, i64 16
  %15 = load double, ptr %14, align 8, !tbaa !100, !noalias !104
  %16 = getelementptr inbounds nuw i8, ptr %0, i64 16
  store double %15, ptr %16, align 8, !tbaa !100, !alias.scope !104
  %17 = getelementptr inbounds nuw i8, ptr %3, i64 24
  %18 = load double, ptr %17, align 8, !tbaa !100, !noalias !104
  %19 = getelementptr inbounds nuw i8, ptr %0, i64 24
  store double %18, ptr %19, align 8, !tbaa !100, !alias.scope !104
  call void @_ZN2cv3MatD1Ev(ptr noundef nonnull align 8 dereferenceable(96) %5) #13
  call void @llvm.lifetime.end.p0(i64 96, ptr nonnull %5) #13
  call void @llvm.lifetime.end.p0(i64 24, ptr nonnull %4) #13
  call void @llvm.lifetime.end.p0(i64 32, ptr nonnull %3) #13
  ret void

20:                                               ; preds = %2
  %21 = landingpad { ptr, i32 }
          cleanup
  call void @_ZN2cv3MatD1Ev(ptr noundef nonnull align 8 dereferenceable(96) %5) #13
  call void @llvm.lifetime.end.p0(i64 96, ptr nonnull %5) #13
  call void @llvm.lifetime.end.p0(i64 24, ptr nonnull %4) #13
  call void @llvm.lifetime.end.p0(i64 32, ptr nonnull %3) #13
  resume { ptr, i32 } %21
}